; Function Attrs: mustprogress uwtable
define void @_ZN7rocksdb34GetFullHistoryTsLowFromU64CutoffTsEPNS_5SliceEPNSt7__cxx1112basic_stringIcSt11char_traitsIcESaIcEEE(ptr noundef captures(none) %0, ptr noundef %1) local_unnamed_addr #1 personality ptr @__gxx_personality_v0 {
  %3 = alloca i64, align 8
  %4 = getelementptr inbounds nuw i8, ptr %0, i64 8
  %5 = load i64, ptr %4, align 8, !tbaa !35
  %6 = icmp ugt i64 %5, 7
  br i1 %6, label %7, label %_ZN7rocksdb10GetFixed64EPNS_5SliceEPm.exit

7:                                                ; preds = %2
  %8 = load ptr, ptr %0, align 8, !tbaa !33
  %.0.copyload.i.i = load i64, ptr %8, align 1
  %9 = getelementptr inbounds nuw i8, ptr %8, i64 8
  store ptr %9, ptr %0, align 8, !tbaa !33
  %10 = add i64 %5, -8
  store i64 %10, ptr %4, align 8, !tbaa !35
  %11 = add i64 %.0.copyload.i.i, 1
  br label %_ZN7rocksdb10GetFixed64EPNS_5SliceEPm.exit

_ZN7rocksdb10GetFixed64EPNS_5SliceEPm.exit:       ; preds = %2, %7
  %.0 = phi i64 [ %11, %7 ], [ 1, %2 ]
  call void @llvm.lifetime.start.p0(i64 8, ptr nonnull %3)
  store i64 %.0, ptr %3, align 8, !tbaa !79
  %12 = getelementptr inbounds nuw i8, ptr %1, i64 8
  %13 = load i64, ptr %12, align 8, !tbaa !29
  %14 = and i64 %13, -8
  %15 = icmp eq i64 %14, 4611686018427387896
  br i1 %15, label %16, label %_ZN7rocksdb10PutFixed64EPNSt7__cxx1112basic_stringIcSt11char_traitsIcESaIcEEEm.exit

16:                                               ; preds = %_ZN7rocksdb10GetFixed64EPNS_5SliceEPm.exit
  tail call void @_ZSt20__throw_length_errorPKc(ptr noundef nonnull @.str.12) #20
  unreachable

_ZN7rocksdb10PutFixed64EPNSt7__cxx1112basic_stringIcSt11char_traitsIcESaIcEEEm.exit: ; preds = %_ZN7rocksdb10GetFixed64EPNS_5SliceEPm.exit
  %17 = call noundef nonnull align 8 dereferenceable(32) ptr @_ZNSt7__cxx1112basic_stringIcSt11char_traitsIcESaIcEE9_M_appendEPKcm(ptr noundef nonnull align 8 dereferenceable(32) %1, ptr noundef nonnull %3, i64 noundef 8)
  call void @llvm.lifetime.end.p0(i64 8, ptr nonnull %3)
  ret void
}